
./original:     file format elf64-x86-64


Disassembly of section .init:

0000000000401000 <.init>:
  401000:	f3 0f 1e fa          	endbr64
  401004:	48 83 ec 08          	sub    $0x8,%rsp
  401008:	48 8b 05 d1 2f 00 00 	mov    0x2fd1(%rip),%rax        # 403fe0 <fgets@plt+0x2f70>
  40100f:	48 85 c0             	test   %rax,%rax
  401012:	74 02                	je     401016 <strncpy@plt-0x1a>
  401014:	ff d0                	call   *%rax
  401016:	48 83 c4 08          	add    $0x8,%rsp
  40101a:	c3                   	ret

Disassembly of section .plt:

0000000000401020 <strncpy@plt-0x10>:
  401020:	ff 35 ca 2f 00 00    	push   0x2fca(%rip)        # 403ff0 <fgets@plt+0x2f80>
  401026:	ff 25 cc 2f 00 00    	jmp    *0x2fcc(%rip)        # 403ff8 <fgets@plt+0x2f88>
  40102c:	0f 1f 40 00          	nopl   0x0(%rax)

0000000000401030 <strncpy@plt>:
  401030:	ff 25 ca 2f 00 00    	jmp    *0x2fca(%rip)        # 404000 <fgets@plt+0x2f90>
  401036:	68 00 00 00 00       	push   $0x0
  40103b:	e9 e0 ff ff ff       	jmp    401020 <strncpy@plt-0x10>

0000000000401040 <puts@plt>:
  401040:	ff 25 c2 2f 00 00    	jmp    *0x2fc2(%rip)        # 404008 <fgets@plt+0x2f98>
  401046:	68 01 00 00 00       	push   $0x1
  40104b:	e9 d0 ff ff ff       	jmp    401020 <strncpy@plt-0x10>

0000000000401050 <strlen@plt>:
  401050:	ff 25 ba 2f 00 00    	jmp    *0x2fba(%rip)        # 404010 <fgets@plt+0x2fa0>
  401056:	68 02 00 00 00       	push   $0x2
  40105b:	e9 c0 ff ff ff       	jmp    401020 <strncpy@plt-0x10>

0000000000401060 <printf@plt>:
  401060:	ff 25 b2 2f 00 00    	jmp    *0x2fb2(%rip)        # 404018 <fgets@plt+0x2fa8>
  401066:	68 03 00 00 00       	push   $0x3
  40106b:	e9 b0 ff ff ff       	jmp    401020 <strncpy@plt-0x10>

0000000000401070 <fgets@plt>:
  401070:	ff 25 aa 2f 00 00    	jmp    *0x2faa(%rip)        # 404020 <fgets@plt+0x2fb0>
  401076:	68 04 00 00 00       	push   $0x4
  40107b:	e9 a0 ff ff ff       	jmp    401020 <strncpy@plt-0x10>

Disassembly of section .text:

0000000000401080 <.text>:
  401080:	41 54                	push   %r12
  401082:	bf b0 22 40 00       	mov    $0x4022b0,%edi
  401087:	55                   	push   %rbp
  401088:	53                   	push   %rbx
  401089:	48 81 ec 10 04 00 00 	sub    $0x410,%rsp
  401090:	e8 ab ff ff ff       	call   401040 <puts@plt>
  401095:	bf 58 23 40 00       	mov    $0x402358,%edi
  40109a:	31 c0                	xor    %eax,%eax
  40109c:	4c 8d 64 24 10       	lea    0x10(%rsp),%r12
  4010a1:	e8 ba ff ff ff       	call   401060 <printf@plt>
  4010a6:	48 8b 15 83 2f 00 00 	mov    0x2f83(%rip),%rdx        # 404030 <stdin@GLIBC_2.2.5>
  4010ad:	4c 89 e7             	mov    %r12,%rdi
  4010b0:	be 00 04 00 00       	mov    $0x400,%esi
  4010b5:	e8 b6 ff ff ff       	call   401070 <fgets@plt>
  4010ba:	4c 89 e7             	mov    %r12,%rdi
  4010bd:	e8 8e ff ff ff       	call   401050 <strlen@plt>
  4010c2:	48 85 c0             	test   %rax,%rax
  4010c5:	74 0b                	je     4010d2 <fgets@plt+0x62>
  4010c7:	80 7c 04 0f 0a       	cmpb   $0xa,0xf(%rsp,%rax,1)
  4010cc:	0f 84 99 00 00 00    	je     40116b <fgets@plt+0xfb>
  4010d2:	4c 89 e7             	mov    %r12,%rdi
  4010d5:	e8 76 ff ff ff       	call   401050 <strlen@plt>
  4010da:	48 8d 7c 24 0d       	lea    0xd(%rsp),%rdi
  4010df:	48 89 c5             	mov    %rax,%rbp
  4010e2:	31 c0                	xor    %eax,%eax
  4010e4:	48 83 fd 46          	cmp    $0x46,%rbp
  4010e8:	0f 94 c0             	sete   %al
  4010eb:	31 db                	xor    %ebx,%ebx
  4010ed:	eb 4f                	jmp    40113e <fgets@plt+0xce>
  4010ef:	90                   	nop
  4010f0:	85 c0                	test   %eax,%eax
  4010f2:	74 6b                	je     40115f <fgets@plt+0xef>
  4010f4:	ba 02 00 00 00       	mov    $0x2,%edx
  4010f9:	49 8d 34 1c          	lea    (%r12,%rbx,1),%rsi
  4010fd:	e8 2e ff ff ff       	call   401030 <strncpy@plt>
  401102:	31 d2                	xor    %edx,%edx
  401104:	48 89 c7             	mov    %rax,%rdi
  401107:	48 0f be 44 24 0d    	movsbq 0xd(%rsp),%rax
  40110d:	84 c0                	test   %al,%al
  40110f:	74 19                	je     40112a <fgets@plt+0xba>
  401111:	48 0f be 4c 24 0e    	movsbq 0xe(%rsp),%rcx
  401117:	84 c9                	test   %cl,%cl
  401119:	74 0f                	je     40112a <fgets@plt+0xba>
  40111b:	48 c1 e0 08          	shl    $0x8,%rax
  40111f:	48 8d 53 01          	lea    0x1(%rbx),%rdx
  401123:	48 01 c1             	add    %rax,%rcx
  401126:	48 0f af d1          	imul   %rcx,%rdx
  40112a:	8b 84 1b 60 23 40 00 	mov    0x402360(%rbx,%rbx,1),%eax
  401131:	48 39 d0             	cmp    %rdx,%rax
  401134:	0f 94 c0             	sete   %al
  401137:	48 83 c3 02          	add    $0x2,%rbx
  40113b:	0f b6 c0             	movzbl %al,%eax
  40113e:	48 39 eb             	cmp    %rbp,%rbx
  401141:	72 ad                	jb     4010f0 <fgets@plt+0x80>
  401143:	85 c0                	test   %eax,%eax
  401145:	74 18                	je     40115f <fgets@plt+0xef>
  401147:	bf 08 23 40 00       	mov    $0x402308,%edi
  40114c:	e8 ef fe ff ff       	call   401040 <puts@plt>
  401151:	48 81 c4 10 04 00 00 	add    $0x410,%rsp
  401158:	31 c0                	xor    %eax,%eax
  40115a:	5b                   	pop    %rbx
  40115b:	5d                   	pop    %rbp
  40115c:	41 5c                	pop    %r12
  40115e:	c3                   	ret
  40115f:	bf 38 23 40 00       	mov    $0x402338,%edi
  401164:	e8 d7 fe ff ff       	call   401040 <puts@plt>
  401169:	eb e6                	jmp    401151 <fgets@plt+0xe1>
  40116b:	c6 44 04 0f 00       	movb   $0x0,0xf(%rsp,%rax,1)
  401170:	e9 5d ff ff ff       	jmp    4010d2 <fgets@plt+0x62>
  401175:	66 2e 0f 1f 84 00 00 	cs nopw 0x0(%rax,%rax,1)
  40117c:	00 00 00 
  40117f:	90                   	nop
  401180:	f3 0f 1e fa          	endbr64
  401184:	31 ed                	xor    %ebp,%ebp
  401186:	49 89 d1             	mov    %rdx,%r9
  401189:	5e                   	pop    %rsi
  40118a:	48 89 e2             	mov    %rsp,%rdx
  40118d:	48 83 e4 f0          	and    $0xfffffffffffffff0,%rsp
  401191:	50                   	push   %rax
  401192:	54                   	push   %rsp
  401193:	45 31 c0             	xor    %r8d,%r8d
  401196:	31 c9                	xor    %ecx,%ecx
  401198:	48 c7 c7 80 10 40 00 	mov    $0x401080,%rdi
  40119f:	ff 15 33 2e 00 00    	call   *0x2e33(%rip)        # 403fd8 <fgets@plt+0x2f68>
  4011a5:	f4                   	hlt
  4011a6:	66 2e 0f 1f 84 00 00 	cs nopw 0x0(%rax,%rax,1)
  4011ad:	00 00 00 
  4011b0:	f3 0f 1e fa          	endbr64
  4011b4:	c3                   	ret
  4011b5:	66 2e 0f 1f 84 00 00 	cs nopw 0x0(%rax,%rax,1)
  4011bc:	00 00 00 
  4011bf:	90                   	nop
  4011c0:	b8 30 40 40 00       	mov    $0x404030,%eax
  4011c5:	48 3d 30 40 40 00    	cmp    $0x404030,%rax
  4011cb:	74 13                	je     4011e0 <fgets@plt+0x170>
  4011cd:	b8 00 00 00 00       	mov    $0x0,%eax
  4011d2:	48 85 c0             	test   %rax,%rax
  4011d5:	74 09                	je     4011e0 <fgets@plt+0x170>
  4011d7:	bf 30 40 40 00       	mov    $0x404030,%edi
  4011dc:	ff e0                	jmp    *%rax
  4011de:	66 90                	xchg   %ax,%ax
  4011e0:	c3                   	ret
  4011e1:	66 66 2e 0f 1f 84 00 	data16 cs nopw 0x0(%rax,%rax,1)
  4011e8:	00 00 00 00 
  4011ec:	0f 1f 40 00          	nopl   0x0(%rax)
  4011f0:	be 30 40 40 00       	mov    $0x404030,%esi
  4011f5:	48 81 ee 30 40 40 00 	sub    $0x404030,%rsi
  4011fc:	48 89 f0             	mov    %rsi,%rax
  4011ff:	48 c1 ee 3f          	shr    $0x3f,%rsi
  401203:	48 c1 f8 03          	sar    $0x3,%rax
  401207:	48 01 c6             	add    %rax,%rsi
  40120a:	48 d1 fe             	sar    $1,%rsi
  40120d:	74 11                	je     401220 <fgets@plt+0x1b0>
  40120f:	b8 00 00 00 00       	mov    $0x0,%eax
  401214:	48 85 c0             	test   %rax,%rax
  401217:	74 07                	je     401220 <fgets@plt+0x1b0>
  401219:	bf 30 40 40 00       	mov    $0x404030,%edi
  40121e:	ff e0                	jmp    *%rax
  401220:	c3                   	ret
  401221:	66 66 2e 0f 1f 84 00 	data16 cs nopw 0x0(%rax,%rax,1)
  401228:	00 00 00 00 
  40122c:	0f 1f 40 00          	nopl   0x0(%rax)
  401230:	f3 0f 1e fa          	endbr64
  401234:	80 3d fd 2d 00 00 00 	cmpb   $0x0,0x2dfd(%rip)        # 404038 <stdin@GLIBC_2.2.5+0x8>
  40123b:	75 13                	jne    401250 <fgets@plt+0x1e0>
  40123d:	55                   	push   %rbp
  40123e:	48 89 e5             	mov    %rsp,%rbp
  401241:	e8 7a ff ff ff       	call   4011c0 <fgets@plt+0x150>
  401246:	c6 05 eb 2d 00 00 01 	movb   $0x1,0x2deb(%rip)        # 404038 <stdin@GLIBC_2.2.5+0x8>
  40124d:	5d                   	pop    %rbp
  40124e:	c3                   	ret
  40124f:	90                   	nop
  401250:	c3                   	ret
  401251:	66 66 2e 0f 1f 84 00 	data16 cs nopw 0x0(%rax,%rax,1)
  401258:	00 00 00 00 
  40125c:	0f 1f 40 00          	nopl   0x0(%rax)
  401260:	f3 0f 1e fa          	endbr64
  401264:	eb 8a                	jmp    4011f0 <fgets@plt+0x180>
  401266:	66 2e 0f 1f 84 00 00 	cs nopw 0x0(%rax,%rax,1)
  40126d:	00 00 00 
  401270:	48 0f be 17          	movsbq (%rdi),%rdx
  401274:	31 c0                	xor    %eax,%eax
  401276:	84 d2                	test   %dl,%dl
  401278:	74 17                	je     401291 <fgets@plt+0x221>
  40127a:	48 0f be 4f 01       	movsbq 0x1(%rdi),%rcx
  40127f:	84 c9                	test   %cl,%cl
  401281:	74 0e                	je     401291 <fgets@plt+0x221>
  401283:	48 c1 e2 08          	shl    $0x8,%rdx
  401287:	89 f6                	mov    %esi,%esi
  401289:	48 8d 04 11          	lea    (%rcx,%rdx,1),%rax
  40128d:	48 0f af c6          	imul   %rsi,%rax
  401291:	c3                   	ret

Disassembly of section .fini:

0000000000401294 <.fini>:
  401294:	f3 0f 1e fa          	endbr64
  401298:	48 83 ec 08          	sub    $0x8,%rsp
  40129c:	48 83 c4 08          	add    $0x8,%rsp
  4012a0:	c3                   	ret

Disassembly of section .annobin.notes:

0000000000000000 <.annobin.notes>:
   0:	41 56                	push   %r14
   2:	3a 34 70             	cmp    (%rax,%rsi,2),%dh
   5:	31 32                	xor    %esi,(%rdx)
   7:	36 39 00             	ss cmp %eax,(%rax)
   a:	52                   	push   %rdx
   b:	56                   	push   %rsi
   c:	3a 72 75             	cmp    0x75(%rdx),%dh
   f:	6e                   	outsb  %ds:(%rsi),(%dx)
  10:	6e                   	outsb  %ds:(%rsi),(%dx)
  11:	69 6e 67 20 67 63 63 	imul   $0x63636720,0x67(%rsi),%ebp
  18:	20 31                	and    %dh,(%rcx)
  1a:	34 2e                	xor    $0x2e,%al
  1c:	32 2e                	xor    (%rsi),%ch
  1e:	31 20                	xor    %esp,(%rax)
  20:	32 30                	xor    (%rax),%dh
  22:	32 35 30 31 31 30    	xor    0x30313130(%rip),%dh        # 30313158 <stdin@GLIBC_2.2.5+0x2ff0f128>
  28:	00 42 56             	add    %al,0x56(%rdx)
  2b:	3a 61 6e             	cmp    0x6e(%rcx),%ah
  2e:	6e                   	outsb  %ds:(%rsi),(%dx)
  2f:	6f                   	outsl  %ds:(%rsi),(%dx)
  30:	62 69 6e 20 67       	(bad)
  35:	63 63 20             	movsxd 0x20(%rbx),%esp
  38:	31 34 2e             	xor    %esi,(%rsi,%rbp,1)
  3b:	32 2e                	xor    (%rsi),%ch
  3d:	31 20                	xor    %esp,(%rax)
  3f:	32 30                	xor    (%rax),%dh
  41:	32 35 30 31 31 30    	xor    0x30313130(%rip),%dh        # 30313177 <stdin@GLIBC_2.2.5+0x2ff0f147>
  47:	00 47 57             	add    %al,0x57(%rdi)
  4a:	3a 30                	cmp    (%rax),%dh
  4c:	78 37                	js     85 <strncpy@plt-0x400fab>
  4e:	64 36 30 35 36 32 20 	fs xor %dh,%fs:0x2e203236(%rip)        # 2e20328c <stdin@GLIBC_2.2.5+0x2ddff25c>
  55:	2e 
  56:	2e 2f                	cs (bad)
  58:	73 79                	jae    d3 <strncpy@plt-0x400f5d>
  5a:	73 64                	jae    c0 <strncpy@plt-0x400f70>
  5c:	65 70 73             	gs jo  d2 <strncpy@plt-0x400f5e>
  5f:	2f                   	(bad)
  60:	78 38                	js     9a <strncpy@plt-0x400f96>
  62:	36 2f                	ss (bad)
  64:	61                   	(bad)
  65:	62 69 2d 6e 6f       	(bad)
  6a:	74 65                	je     d1 <strncpy@plt-0x400f5f>
  6c:	2e 63 00             	cs movsxd (%rax),%eax
  6f:	53                   	push   %rbx
  70:	50                   	push   %rax
  71:	3a 33                	cmp    (%rbx),%dh
  73:	00 53 43             	add    %dl,0x43(%rbx)
  76:	3a 31                	cmp    (%rcx),%dh
  78:	00 43 46             	add    %al,0x46(%rbx)
  7b:	3a 38                	cmp    (%rax),%bh
  7d:	20 2e                	and    %ch,(%rsi)
  7f:	2e 2f                	cs (bad)
  81:	73 79                	jae    fc <strncpy@plt-0x400f34>
  83:	73 64                	jae    e9 <strncpy@plt-0x400f47>
  85:	65 70 73             	gs jo  fb <strncpy@plt-0x400f35>
  88:	2f                   	(bad)
  89:	78 38                	js     c3 <strncpy@plt-0x400f6d>
  8b:	36 2f                	ss (bad)
  8d:	61                   	(bad)
  8e:	62 69 2d 6e 6f       	(bad)
  93:	74 65                	je     fa <strncpy@plt-0x400f36>
  95:	2e 63 00             	cs movsxd (%rax),%eax
  98:	46                   	rex.RX
  99:	4c 3a 30             	rex.WR cmp (%rax),%r14b
  9c:	20 2e                	and    %ch,(%rsi)
  9e:	2e 2f                	cs (bad)
  a0:	73 79                	jae    11b <strncpy@plt-0x400f15>
  a2:	73 64                	jae    108 <strncpy@plt-0x400f28>
  a4:	65 70 73             	gs jo  11a <strncpy@plt-0x400f16>
  a7:	2f                   	(bad)
  a8:	78 38                	js     e2 <strncpy@plt-0x400f4e>
  aa:	36 2f                	ss (bad)
  ac:	61                   	(bad)
  ad:	62 69 2d 6e 6f       	(bad)
  b2:	74 65                	je     119 <strncpy@plt-0x400f17>
  b4:	2e 63 00             	cs movsxd (%rax),%eax
  b7:	47                   	rex.RXB
  b8:	41 3a 31             	cmp    (%r9),%sil
  bb:	00 50 49             	add    %dl,0x49(%rax)
  be:	3a 34 00             	cmp    (%rax,%rax,1),%dh
  c1:	53                   	push   %rbx
  c2:	45 3a 30             	cmp    (%r8),%r14b
  c5:	00 69 53             	add    %ch,0x53(%rcx)
  c8:	3a 30                	cmp    (%rax),%dh
  ca:	00 47 57             	add    %al,0x57(%rdi)
  cd:	3a 30                	cmp    (%rax),%dh
  cf:	78 37                	js     108 <strncpy@plt-0x400f28>
  d1:	64 36 30 35 36 32 20 	fs xor %dh,%fs:0x69203236(%rip)        # 6920330f <stdin@GLIBC_2.2.5+0x68dff2df>
  d8:	69 
  d9:	6e                   	outsb  %ds:(%rsi),(%dx)
  da:	69 74 2e 63 00 43 46 	imul   $0x3a464300,0x63(%rsi,%rbp,1),%esi
  e1:	3a 
  e2:	38 20                	cmp    %ah,(%rax)
  e4:	69 6e 69 74 2e 63 00 	imul   $0x632e74,0x69(%rsi),%ebp
  eb:	46                   	rex.RX
  ec:	4c 3a 30             	rex.WR cmp (%rax),%r14b
  ef:	20 69 6e             	and    %ch,0x6e(%rcx)
  f2:	69 74 2e 63 00 47 57 	imul   $0x3a574700,0x63(%rsi,%rbp,1),%esi
  f9:	3a 
  fa:	30 78 37             	xor    %bh,0x37(%rax)
  fd:	64 36 30 35 36 32 20 	fs xor %dh,%fs:0x73203236(%rip)        # 7320333b <stdin@GLIBC_2.2.5+0x72dff30b>
 104:	73 
 105:	74 61                	je     168 <strncpy@plt-0x400ec8>
 107:	74 69                	je     172 <strncpy@plt-0x400ebe>
 109:	63 2d 72 65 6c 6f    	movsxd 0x6f6c6572(%rip),%ebp        # 6f6c6681 <stdin@GLIBC_2.2.5+0x6f2c2651>
 10f:	63 2e                	movsxd (%rsi),%ebp
 111:	63 00                	movsxd (%rax),%eax
 113:	53                   	push   %rbx
 114:	50                   	push   %rax
 115:	3a 30                	cmp    (%rax),%dh
 117:	20 73 74             	and    %dh,0x74(%rbx)
 11a:	61                   	(bad)
 11b:	74 69                	je     186 <strncpy@plt-0x400eaa>
 11d:	63 2d 72 65 6c 6f    	movsxd 0x6f6c6572(%rip),%ebp        # 6f6c6695 <stdin@GLIBC_2.2.5+0x6f2c2665>
 123:	63 2e                	movsxd (%rsi),%ebp
 125:	63 00                	movsxd (%rax),%eax
 127:	43                   	rex.XB
 128:	46 3a 38             	rex.RX cmp (%rax),%r15b
 12b:	20 73 74             	and    %dh,0x74(%rbx)
 12e:	61                   	(bad)
 12f:	74 69                	je     19a <strncpy@plt-0x400e96>
 131:	63 2d 72 65 6c 6f    	movsxd 0x6f6c6572(%rip),%ebp        # 6f6c66a9 <stdin@GLIBC_2.2.5+0x6f2c2679>
 137:	63 2e                	movsxd (%rsi),%ebp
 139:	63 00                	movsxd (%rax),%eax
 13b:	46                   	rex.RX
 13c:	4c 3a 30             	rex.WR cmp (%rax),%r14b
 13f:	20 73 74             	and    %dh,0x74(%rbx)
 142:	61                   	(bad)
 143:	74 69                	je     1ae <strncpy@plt-0x400e82>
 145:	63 2d 72 65 6c 6f    	movsxd 0x6f6c6572(%rip),%ebp        # 6f6c66bd <stdin@GLIBC_2.2.5+0x6f2c268d>
 14b:	63 2e                	movsxd (%rsi),%ebp
 14d:	63 00                	movsxd (%rax),%eax
